target datalayout = "e-m:e-p270:32:32-p271:32:32-p272:64:64-i64:64-i128:128-f80:128-n8:16:32:64-S128"
target triple = "x86_64-pc-linux-gnu"

%struct.AVComplexFloat = type { float, float }
%struct.AVTXContext = type { i32, i32, ptr, ptr, ptr, ptr, [4 x ptr], i32, [4 x ptr], ptr, i32, i64, i32, float, double, ptr }

; Function Attrs: nounwind uwtable
define internal void @ff_tx_rdft_r2i_mod2_float_c(ptr noundef %0, ptr noundef %1, ptr noundef %2, i64 noundef %3) #4 {
  %5 = alloca ptr, align 8
  %6 = alloca ptr, align 8
  %7 = alloca ptr, align 8
  %8 = alloca i64, align 8
  %9 = alloca i32, align 4
  %10 = alloca i32, align 4
  %11 = alloca i32, align 4
  %12 = alloca i32, align 4
  %13 = alloca ptr, align 8
  %14 = alloca ptr, align 8
  %15 = alloca ptr, align 8
  %16 = alloca ptr, align 8
  %17 = alloca ptr, align 8
  %18 = alloca float, align 4
  %19 = alloca float, align 4
  %20 = alloca [4 x float], align 16
  %21 = alloca %struct.AVComplexFloat, align 4
  %22 = alloca %struct.AVComplexFloat, align 4
  %23 = alloca i32, align 4
  %24 = alloca [4 x float], align 16
  %25 = alloca %struct.AVComplexFloat, align 4
  %26 = alloca %struct.AVComplexFloat, align 4
  %27 = alloca i32, align 4
  store ptr %0, ptr %5, align 8, !tbaa !17
  store ptr %1, ptr %6, align 8, !tbaa !8
  store ptr %2, ptr %7, align 8, !tbaa !8
  store i64 %3, ptr %8, align 8, !tbaa !30
  call void @llvm.lifetime.start.p0(i64 4, ptr %9) #10
  %28 = load ptr, ptr %5, align 8, !tbaa !17
  %29 = getelementptr inbounds nuw %struct.AVTXContext, ptr %28, i32 0, i32 0
  %30 = load i32, ptr %29, align 8, !tbaa !21
  store i32 %30, ptr %9, align 4, !tbaa !4
  call void @llvm.lifetime.start.p0(i64 4, ptr %10) #10
  %31 = load i32, ptr %9, align 4, !tbaa !4
  %32 = ashr i32 %31, 1
  store i32 %32, ptr %10, align 4, !tbaa !4
  call void @llvm.lifetime.start.p0(i64 4, ptr %11) #10
  %33 = load i32, ptr %9, align 4, !tbaa !4
  %34 = ashr i32 %33, 2
  store i32 %34, ptr %11, align 4, !tbaa !4
  call void @llvm.lifetime.start.p0(i64 4, ptr %12) #10
  %35 = load i32, ptr %9, align 4, !tbaa !4
  %36 = add nsw i32 %35, 4
  %37 = sub nsw i32 %36, 1
  %38 = and i32 %37, -4
  %39 = sdiv i32 %38, 4
  store i32 %39, ptr %12, align 4, !tbaa !4
  call void @llvm.lifetime.start.p0(i64 8, ptr %13) #10
  %40 = load ptr, ptr %5, align 8, !tbaa !17
  %41 = getelementptr inbounds nuw %struct.AVTXContext, ptr %40, i32 0, i32 3
  %42 = load ptr, ptr %41, align 8, !tbaa !31
  store ptr %42, ptr %13, align 8, !tbaa !39
  call void @llvm.lifetime.start.p0(i64 8, ptr %14) #10
  %43 = load ptr, ptr %13, align 8, !tbaa !39
  %44 = getelementptr inbounds float, ptr %43, i64 8
  store ptr %44, ptr %14, align 8, !tbaa !39
  call void @llvm.lifetime.start.p0(i64 8, ptr %15) #10
  %45 = load ptr, ptr %14, align 8, !tbaa !39
  %46 = load i32, ptr %12, align 4, !tbaa !4
  %47 = sext i32 %46 to i64
  %48 = getelementptr inbounds float, ptr %45, i64 %47
  store ptr %48, ptr %15, align 8, !tbaa !39
  call void @llvm.lifetime.start.p0(i64 8, ptr %16) #10
  %49 = load ptr, ptr %6, align 8, !tbaa !8
  store ptr %49, ptr %16, align 8, !tbaa !60
  call void @llvm.lifetime.start.p0(i64 8, ptr %17) #10
  %50 = load ptr, ptr %6, align 8, !tbaa !8
  store ptr %50, ptr %17, align 8, !tbaa !39
  call void @llvm.lifetime.start.p0(i64 4, ptr %18) #10
  call void @llvm.lifetime.start.p0(i64 4, ptr %19) #10
  call void @llvm.lifetime.start.p0(i64 16, ptr %20) #10
  call void @llvm.lifetime.start.p0(i64 8, ptr %21) #10
  call void @llvm.lifetime.start.p0(i64 8, ptr %22) #10
  %51 = load ptr, ptr %5, align 8, !tbaa !17
  %52 = getelementptr inbounds nuw %struct.AVTXContext, ptr %51, i32 0, i32 6
  %53 = getelementptr inbounds [4 x ptr], ptr %52, i64 0, i64 0
  %54 = load ptr, ptr %53, align 8, !tbaa !8
  %55 = load ptr, ptr %5, align 8, !tbaa !17
  %56 = getelementptr inbounds nuw %struct.AVTXContext, ptr %55, i32 0, i32 5
  %57 = load ptr, ptr %56, align 8, !tbaa !68
  %58 = getelementptr inbounds %struct.AVTXContext, ptr %57, i64 0
  %59 = load ptr, ptr %6, align 8, !tbaa !8
  %60 = load ptr, ptr %7, align 8, !tbaa !8
  call void %54(ptr noundef %58, ptr noundef %59, ptr noundef %60, i64 noundef 8)
  %61 = load ptr, ptr %16, align 8, !tbaa !60
  %62 = getelementptr inbounds %struct.AVComplexFloat, ptr %61, i64 0
  %63 = getelementptr inbounds nuw %struct.AVComplexFloat, ptr %62, i32 0, i32 0
  %64 = load float, ptr %63, align 4, !tbaa !32
  store float %64, ptr %18, align 4, !tbaa !36
  %65 = load float, ptr %18, align 4, !tbaa !36
  %66 = load ptr, ptr %16, align 8, !tbaa !60
  %67 = getelementptr inbounds %struct.AVComplexFloat, ptr %66, i64 0
  %68 = getelementptr inbounds nuw %struct.AVComplexFloat, ptr %67, i32 0, i32 1
  %69 = load float, ptr %68, align 4, !tbaa !34
  %70 = fadd nsz float %65, %69
  %71 = load ptr, ptr %16, align 8, !tbaa !60
  %72 = getelementptr inbounds %struct.AVComplexFloat, ptr %71, i64 0
  %73 = getelementptr inbounds nuw %struct.AVComplexFloat, ptr %72, i32 0, i32 0
  store float %70, ptr %73, align 4, !tbaa !32
  %74 = load float, ptr %18, align 4, !tbaa !36
  %75 = load ptr, ptr %16, align 8, !tbaa !60
  %76 = getelementptr inbounds %struct.AVComplexFloat, ptr %75, i64 0
  %77 = getelementptr inbounds nuw %struct.AVComplexFloat, ptr %76, i32 0, i32 1
  %78 = load float, ptr %77, align 4, !tbaa !34
  %79 = fsub nsz float %74, %78
  store float %79, ptr %18, align 4, !tbaa !36
  %80 = load ptr, ptr %13, align 8, !tbaa !39
  %81 = getelementptr inbounds float, ptr %80, i64 0
  %82 = load float, ptr %81, align 4, !tbaa !36
  %83 = load ptr, ptr %16, align 8, !tbaa !60
  %84 = getelementptr inbounds %struct.AVComplexFloat, ptr %83, i64 0
  %85 = getelementptr inbounds nuw %struct.AVComplexFloat, ptr %84, i32 0, i32 0
  %86 = load float, ptr %85, align 4, !tbaa !32
  %87 = fmul nsz float %82, %86
  %88 = load ptr, ptr %16, align 8, !tbaa !60
  %89 = getelementptr inbounds %struct.AVComplexFloat, ptr %88, i64 0
  %90 = getelementptr inbounds nuw %struct.AVComplexFloat, ptr %89, i32 0, i32 0
  store float %87, ptr %90, align 4, !tbaa !32
  %91 = load ptr, ptr %13, align 8, !tbaa !39
  %92 = getelementptr inbounds float, ptr %91, i64 1
  %93 = load float, ptr %92, align 4, !tbaa !36
  %94 = load float, ptr %18, align 4, !tbaa !36
  %95 = fmul nsz float %93, %94
  store float %95, ptr %18, align 4, !tbaa !36
  %96 = load ptr, ptr %13, align 8, !tbaa !39
  %97 = getelementptr inbounds float, ptr %96, i64 2
  %98 = load float, ptr %97, align 4, !tbaa !36
  %99 = load ptr, ptr %16, align 8, !tbaa !60
  %100 = load i32, ptr %11, align 4, !tbaa !4
  %101 = sext i32 %100 to i64
  %102 = getelementptr inbounds %struct.AVComplexFloat, ptr %99, i64 %101
  %103 = getelementptr inbounds nuw %struct.AVComplexFloat, ptr %102, i32 0, i32 0
  %104 = load float, ptr %103, align 4, !tbaa !32
  %105 = fmul nsz float %98, %104
  %106 = load ptr, ptr %16, align 8, !tbaa !60
  %107 = load i32, ptr %11, align 4, !tbaa !4
  %108 = sext i32 %107 to i64
  %109 = getelementptr inbounds %struct.AVComplexFloat, ptr %106, i64 %108
  %110 = getelementptr inbounds nuw %struct.AVComplexFloat, ptr %109, i32 0, i32 0
  store float %105, ptr %110, align 4, !tbaa !32
  %111 = load ptr, ptr %16, align 8, !tbaa !60
  %112 = load i32, ptr %11, align 4, !tbaa !4
  %113 = sext i32 %112 to i64
  %114 = getelementptr inbounds %struct.AVComplexFloat, ptr %111, i64 %113
  call void @llvm.memcpy.p0.p0.i64(ptr align 4 %21, ptr align 4 %114, i64 8, i1 false), !tbaa.struct !35
  %115 = load ptr, ptr %16, align 8, !tbaa !60
  %116 = load i32, ptr %11, align 4, !tbaa !4
  %117 = add nsw i32 %116, 1
  %118 = sext i32 %117 to i64
  %119 = getelementptr inbounds %struct.AVComplexFloat, ptr %115, i64 %118
  call void @llvm.memcpy.p0.p0.i64(ptr align 4 %22, ptr align 4 %119, i64 8, i1 false), !tbaa.struct !35
  %120 = load ptr, ptr %13, align 8, !tbaa !39
  %121 = getelementptr inbounds float, ptr %120, i64 5
  %122 = load float, ptr %121, align 4, !tbaa !36
  %123 = getelementptr inbounds nuw %struct.AVComplexFloat, ptr %21, i32 0, i32 1
  %124 = load float, ptr %123, align 4, !tbaa !34
  %125 = getelementptr inbounds nuw %struct.AVComplexFloat, ptr %22, i32 0, i32 1
  %126 = load float, ptr %125, align 4, !tbaa !34
  %127 = fsub nsz float %124, %126
  %128 = fmul nsz float %122, %127
  %129 = getelementptr inbounds [4 x float], ptr %20, i64 0, i64 0
  store float %128, ptr %129, align 16, !tbaa !36
  %130 = load ptr, ptr %13, align 8, !tbaa !39
  %131 = getelementptr inbounds float, ptr %130, i64 6
  %132 = load float, ptr %131, align 4, !tbaa !36
  %133 = getelementptr inbounds nuw %struct.AVComplexFloat, ptr %21, i32 0, i32 1
  %134 = load float, ptr %133, align 4, !tbaa !34
  %135 = getelementptr inbounds nuw %struct.AVComplexFloat, ptr %22, i32 0, i32 1
  %136 = load float, ptr %135, align 4, !tbaa !34
  %137 = fadd nsz float %134, %136
  %138 = fmul nsz float %132, %137
  %139 = getelementptr inbounds [4 x float], ptr %20, i64 0, i64 1
  store float %138, ptr %139, align 4, !tbaa !36
  %140 = load ptr, ptr %13, align 8, !tbaa !39
  %141 = getelementptr inbounds float, ptr %140, i64 7
  %142 = load float, ptr %141, align 4, !tbaa !36
  %143 = getelementptr inbounds nuw %struct.AVComplexFloat, ptr %21, i32 0, i32 0
  %144 = load float, ptr %143, align 4, !tbaa !32
  %145 = getelementptr inbounds nuw %struct.AVComplexFloat, ptr %22, i32 0, i32 0
  %146 = load float, ptr %145, align 4, !tbaa !32
  %147 = fsub nsz float %144, %146
  %148 = fmul nsz float %142, %147
  %149 = getelementptr inbounds [4 x float], ptr %20, i64 0, i64 2
  store float %148, ptr %149, align 8, !tbaa !36
  %150 = getelementptr inbounds [4 x float], ptr %20, i64 0, i64 1
  %151 = load float, ptr %150, align 4, !tbaa !36
  %152 = load ptr, ptr %15, align 8, !tbaa !39
  %153 = load i32, ptr %11, align 4, !tbaa !4
  %154 = sext i32 %153 to i64
  %155 = getelementptr inbounds float, ptr %152, i64 %154
  %156 = load float, ptr %155, align 4, !tbaa !36
  %157 = getelementptr inbounds [4 x float], ptr %20, i64 0, i64 2
  %158 = load float, ptr %157, align 8, !tbaa !36
  %159 = load ptr, ptr %14, align 8, !tbaa !39
  %160 = load i32, ptr %11, align 4, !tbaa !4
  %161 = sext i32 %160 to i64
  %162 = getelementptr inbounds float, ptr %159, i64 %161
  %163 = load float, ptr %162, align 4, !tbaa !36
  %164 = fmul nsz float %158, %163
  %165 = call nsz float @llvm.fmuladd.f32(float %151, float %156, float %164)
  %166 = getelementptr inbounds [4 x float], ptr %20, i64 0, i64 3
  store float %165, ptr %166, align 4, !tbaa !36
  %167 = getelementptr inbounds [4 x float], ptr %20, i64 0, i64 0
  %168 = load float, ptr %167, align 16, !tbaa !36
  %169 = getelementptr inbounds [4 x float], ptr %20, i64 0, i64 3
  %170 = load float, ptr %169, align 4, !tbaa !36
  %171 = fadd nsz float %168, %170
  store float %171, ptr %19, align 4, !tbaa !36
  call void @llvm.lifetime.start.p0(i64 4, ptr %23) #10
  store i32 1, ptr %23, align 4, !tbaa !4
  br label %172

172:                                              ; preds = %257, %4
  %173 = load i32, ptr %23, align 4, !tbaa !4
  %174 = load i32, ptr %11, align 4, !tbaa !4
  %175 = icmp sle i32 %173, %174
  br i1 %175, label %177, label %176

176:                                              ; preds = %172
  call void @llvm.lifetime.end.p0(i64 4, ptr %23) #10
  br label %260

177:                                              ; preds = %172
  call void @llvm.lifetime.start.p0(i64 16, ptr %24) #10
  call void @llvm.lifetime.start.p0(i64 8, ptr %25) #10
  %178 = load ptr, ptr %16, align 8, !tbaa !60
  %179 = load i32, ptr %23, align 4, !tbaa !4
  %180 = sext i32 %179 to i64
  %181 = getelementptr inbounds %struct.AVComplexFloat, ptr %178, i64 %180
  call void @llvm.memcpy.p0.p0.i64(ptr align 4 %25, ptr align 4 %181, i64 8, i1 false), !tbaa.struct !35
  call void @llvm.lifetime.start.p0(i64 8, ptr %26) #10
  %182 = load ptr, ptr %16, align 8, !tbaa !60
  %183 = load i32, ptr %10, align 4, !tbaa !4
  %184 = load i32, ptr %23, align 4, !tbaa !4
  %185 = sub nsw i32 %183, %184
  %186 = sext i32 %185 to i64
  %187 = getelementptr inbounds %struct.AVComplexFloat, ptr %182, i64 %186
  call void @llvm.memcpy.p0.p0.i64(ptr align 4 %26, ptr align 4 %187, i64 8, i1 false), !tbaa.struct !35
  %188 = load ptr, ptr %13, align 8, !tbaa !39
  %189 = getelementptr inbounds float, ptr %188, i64 5
  %190 = load float, ptr %189, align 4, !tbaa !36
  %191 = getelementptr inbounds nuw %struct.AVComplexFloat, ptr %25, i32 0, i32 1
  %192 = load float, ptr %191, align 4, !tbaa !34
  %193 = getelementptr inbounds nuw %struct.AVComplexFloat, ptr %26, i32 0, i32 1
  %194 = load float, ptr %193, align 4, !tbaa !34
  %195 = fsub nsz float %192, %194
  %196 = fmul nsz float %190, %195
  %197 = getelementptr inbounds [4 x float], ptr %24, i64 0, i64 0
  store float %196, ptr %197, align 16, !tbaa !36
  %198 = load ptr, ptr %13, align 8, !tbaa !39
  %199 = getelementptr inbounds float, ptr %198, i64 6
  %200 = load float, ptr %199, align 4, !tbaa !36
  %201 = getelementptr inbounds nuw %struct.AVComplexFloat, ptr %25, i32 0, i32 1
  %202 = load float, ptr %201, align 4, !tbaa !34
  %203 = getelementptr inbounds nuw %struct.AVComplexFloat, ptr %26, i32 0, i32 1
  %204 = load float, ptr %203, align 4, !tbaa !34
  %205 = fadd nsz float %202, %204
  %206 = fmul nsz float %200, %205
  %207 = getelementptr inbounds [4 x float], ptr %24, i64 0, i64 1
  store float %206, ptr %207, align 4, !tbaa !36
  %208 = load ptr, ptr %13, align 8, !tbaa !39
  %209 = getelementptr inbounds float, ptr %208, i64 7
  %210 = load float, ptr %209, align 4, !tbaa !36
  %211 = getelementptr inbounds nuw %struct.AVComplexFloat, ptr %25, i32 0, i32 0
  %212 = load float, ptr %211, align 4, !tbaa !32
  %213 = getelementptr inbounds nuw %struct.AVComplexFloat, ptr %26, i32 0, i32 0
  %214 = load float, ptr %213, align 4, !tbaa !32
  %215 = fsub nsz float %212, %214
  %216 = fmul nsz float %210, %215
  %217 = getelementptr inbounds [4 x float], ptr %24, i64 0, i64 2
  store float %216, ptr %217, align 8, !tbaa !36
  %218 = getelementptr inbounds [4 x float], ptr %24, i64 0, i64 1
  %219 = load float, ptr %218, align 4, !tbaa !36
  %220 = load ptr, ptr %15, align 8, !tbaa !39
  %221 = load i32, ptr %23, align 4, !tbaa !4
  %222 = sext i32 %221 to i64
  %223 = getelementptr inbounds float, ptr %220, i64 %222
  %224 = load float, ptr %223, align 4, !tbaa !36
  %225 = getelementptr inbounds [4 x float], ptr %24, i64 0, i64 2
  %226 = load float, ptr %225, align 8, !tbaa !36
  %227 = load ptr, ptr %14, align 8, !tbaa !39
  %228 = load i32, ptr %23, align 4, !tbaa !4
  %229 = sext i32 %228 to i64
  %230 = getelementptr inbounds float, ptr %227, i64 %229
  %231 = load float, ptr %230, align 4, !tbaa !36
  %232 = fmul nsz float %226, %231
  %233 = call nsz float @llvm.fmuladd.f32(float %219, float %224, float %232)
  %234 = getelementptr inbounds [4 x float], ptr %24, i64 0, i64 3
  store float %233, ptr %234, align 4, !tbaa !36
  %235 = getelementptr inbounds [4 x float], ptr %24, i64 0, i64 3
  %236 = load float, ptr %235, align 4, !tbaa !36
  %237 = getelementptr inbounds [4 x float], ptr %24, i64 0, i64 0
  %238 = load float, ptr %237, align 16, !tbaa !36
  %239 = fsub nsz float %236, %238
  %240 = load ptr, ptr %17, align 8, !tbaa !39
  %241 = load i32, ptr %23, align 4, !tbaa !4
  %242 = sub nsw i32 %241, 1
  %243 = sext i32 %242 to i64
  %244 = getelementptr inbounds float, ptr %240, i64 %243
  store float %239, ptr %244, align 4, !tbaa !36
  %245 = getelementptr inbounds [4 x float], ptr %24, i64 0, i64 0
  %246 = load float, ptr %245, align 16, !tbaa !36
  %247 = getelementptr inbounds [4 x float], ptr %24, i64 0, i64 3
  %248 = load float, ptr %247, align 4, !tbaa !36
  %249 = fadd nsz float %246, %248
  %250 = load ptr, ptr %17, align 8, !tbaa !39
  %251 = load i32, ptr %9, align 4, !tbaa !4
  %252 = load i32, ptr %23, align 4, !tbaa !4
  %253 = sub nsw i32 %251, %252
  %254 = sub nsw i32 %253, 1
  %255 = sext i32 %254 to i64
  %256 = getelementptr inbounds float, ptr %250, i64 %255
  store float %249, ptr %256, align 4, !tbaa !36
  call void @llvm.lifetime.end.p0(i64 8, ptr %26) #10
  call void @llvm.lifetime.end.p0(i64 8, ptr %25) #10
  call void @llvm.lifetime.end.p0(i64 16, ptr %24) #10
  br label %257

257:                                              ; preds = %177
  %258 = load i32, ptr %23, align 4, !tbaa !4
  %259 = add nsw i32 %258, 1
  store i32 %259, ptr %23, align 4, !tbaa !4
  br label %172, !llvm.loop !157

260:                                              ; preds = %176
  call void @llvm.lifetime.start.p0(i64 4, ptr %27) #10
  store i32 1, ptr %27, align 4, !tbaa !4
  br label %261

261:                                              ; preds = %281, %260
  %262 = load i32, ptr %27, align 4, !tbaa !4
  %263 = load i32, ptr %11, align 4, !tbaa !4
  %264 = add nsw i32 %263, 1
  %265 = icmp slt i32 %262, %264
  br i1 %265, label %267, label %266

266:                                              ; preds = %261
  call void @llvm.lifetime.end.p0(i64 4, ptr %27) #10
  br label %284

267:                                              ; preds = %261
  %268 = load ptr, ptr %17, align 8, !tbaa !39
  %269 = load i32, ptr %9, align 4, !tbaa !4
  %270 = load i32, ptr %27, align 4, !tbaa !4
  %271 = sub nsw i32 %269, %270
  %272 = sext i32 %271 to i64
  %273 = getelementptr inbounds float, ptr %268, i64 %272
  %274 = load float, ptr %273, align 4, !tbaa !36
  %275 = load ptr, ptr %17, align 8, !tbaa !39
  %276 = load i32, ptr %10, align 4, !tbaa !4
  %277 = load i32, ptr %27, align 4, !tbaa !4
  %278 = sub nsw i32 %276, %277
  %279 = sext i32 %278 to i64
  %280 = getelementptr inbounds float, ptr %275, i64 %279
  store float %274, ptr %280, align 4, !tbaa !36
  br label %281

281:                                              ; preds = %267
  %282 = load i32, ptr %27, align 4, !tbaa !4
  %283 = add nsw i32 %282, 1
  store i32 %283, ptr %27, align 4, !tbaa !4
  br label %261, !llvm.loop !158

284:                                              ; preds = %266
  %285 = load float, ptr %19, align 4, !tbaa !36
  %286 = load ptr, ptr %17, align 8, !tbaa !39
  %287 = load i32, ptr %11, align 4, !tbaa !4
  %288 = sext i32 %287 to i64
  %289 = getelementptr inbounds float, ptr %286, i64 %288
  store float %285, ptr %289, align 4, !tbaa !36
  call void @llvm.lifetime.end.p0(i64 8, ptr %22) #10
  call void @llvm.lifetime.end.p0(i64 8, ptr %21) #10
  call void @llvm.lifetime.end.p0(i64 16, ptr %20) #10
  call void @llvm.lifetime.end.p0(i64 4, ptr %19) #10
  call void @llvm.lifetime.end.p0(i64 4, ptr %18) #10
  call void @llvm.lifetime.end.p0(i64 8, ptr %17) #10
  call void @llvm.lifetime.end.p0(i64 8, ptr %16) #10
  call void @llvm.lifetime.end.p0(i64 8, ptr %15) #10
  call void @llvm.lifetime.end.p0(i64 8, ptr %14) #10
  call void @llvm.lifetime.end.p0(i64 8, ptr %13) #10
  call void @llvm.lifetime.end.p0(i64 4, ptr %12) #10
  call void @llvm.lifetime.end.p0(i64 4, ptr %11) #10
  call void @llvm.lifetime.end.p0(i64 4, ptr %10) #10
  call void @llvm.lifetime.end.p0(i64 4, ptr %9) #10
  ret void
}