; Function Attrs: nounwind uwtable
define internal void @ff_tx_rdft_r2i_mod2_float_c(ptr noundef readonly captures(none) %0, ptr noundef %1, ptr noundef %2, i64 %3) #3 {
  %5 = load i32, ptr %0, align 8, !tbaa !16
  %6 = ashr i32 %5, 1
  %7 = ashr i32 %5, 2
  %8 = add nsw i32 %5, 3
  %9 = ashr i32 %8, 2
  %10 = getelementptr inbounds nuw i8, ptr %0, i64 16
  %11 = load ptr, ptr %10, align 8, !tbaa !26
  %12 = getelementptr inbounds nuw i8, ptr %11, i64 32
  %13 = sext i32 %9 to i64
  %14 = getelementptr inbounds float, ptr %12, i64 %13
  %15 = getelementptr inbounds nuw i8, ptr %0, i64 40
  %16 = load ptr, ptr %15, align 8, !tbaa !4
  %17 = getelementptr inbounds nuw i8, ptr %0, i64 32
  %18 = load ptr, ptr %17, align 8, !tbaa !56
  tail call void %16(ptr noundef %18, ptr noundef %1, ptr noundef %2, i64 noundef 8) #16
  %19 = load float, ptr %1, align 4, !tbaa !49
  %20 = getelementptr inbounds nuw i8, ptr %1, i64 4
  %21 = load float, ptr %20, align 4, !tbaa !51
  %22 = fadd nsz float %19, %21
  store float %22, ptr %1, align 4, !tbaa !49
  %23 = load float, ptr %11, align 4, !tbaa !27
  %24 = fmul nsz float %22, %23
  store float %24, ptr %1, align 4, !tbaa !49
  %25 = getelementptr inbounds nuw i8, ptr %11, i64 8
  %26 = load float, ptr %25, align 4, !tbaa !27
  %27 = sext i32 %7 to i64
  %28 = getelementptr %struct.AVComplexFloat, ptr %1, i64 %27
  %29 = load float, ptr %28, align 4, !tbaa !49
  %30 = fmul nsz float %26, %29
  store float %30, ptr %28, align 4, !tbaa !49
  %.sroa.423.0..sroa_idx = getelementptr inbounds nuw i8, ptr %28, i64 4
  %.sroa.423.0.copyload = load float, ptr %.sroa.423.0..sroa_idx, align 4, !tbaa !27
  %31 = getelementptr i8, ptr %28, i64 8
  %.sroa.019.0.copyload = load float, ptr %31, align 4, !tbaa !27
  %.sroa.420.0..sroa_idx = getelementptr i8, ptr %28, i64 12
  %.sroa.420.0.copyload = load float, ptr %.sroa.420.0..sroa_idx, align 4, !tbaa !27
  %32 = getelementptr inbounds nuw i8, ptr %11, i64 20
  %33 = load float, ptr %32, align 4, !tbaa !27
  %34 = getelementptr inbounds nuw i8, ptr %11, i64 24
  %35 = load float, ptr %34, align 4, !tbaa !27
  %36 = getelementptr inbounds nuw i8, ptr %11, i64 28
  %37 = load float, ptr %36, align 4, !tbaa !27
  %38 = getelementptr inbounds float, ptr %14, i64 %27
  %39 = load float, ptr %38, align 4, !tbaa !27
  %40 = getelementptr inbounds float, ptr %12, i64 %27
  %41 = load float, ptr %40, align 4, !tbaa !27
  %invariant.gep = getelementptr i8, ptr %1, i64 -4
  %.not89 = icmp slt i32 %7, 1
  br i1 %.not89, label %._crit_edge, label %.lr.ph.preheader

.lr.ph.preheader:                                 ; preds = %4
  %42 = sext i32 %6 to i64
  %43 = add nuw nsw i32 %7, 1
  %wide.trip.count = zext nneg i32 %43 to i64
  br label %.lr.ph

.lr.ph93.preheader:                               ; preds = %.lr.ph
  %44 = zext nneg i32 %5 to i64
  %45 = sext i32 %6 to i64
  %46 = add nuw nsw i32 %7, 1
  %wide.trip.count99 = zext nneg i32 %46 to i64
  br label %.lr.ph93

.lr.ph:                                           ; preds = %.lr.ph.preheader, %.lr.ph
  %indvars.iv = phi i64 [ 1, %.lr.ph.preheader ], [ %indvars.iv.next, %.lr.ph ]
  %47 = getelementptr inbounds nuw %struct.AVComplexFloat, ptr %1, i64 %indvars.iv
  %.sroa.05.0.copyload = load float, ptr %47, align 4, !tbaa !27
  %.sroa.46.0..sroa_idx = getelementptr inbounds nuw i8, ptr %47, i64 4
  %.sroa.46.0.copyload = load float, ptr %.sroa.46.0..sroa_idx, align 4, !tbaa !27
  %48 = sub nsw i64 %42, %indvars.iv
  %49 = getelementptr inbounds %struct.AVComplexFloat, ptr %1, i64 %48
  %.sroa.0.0.copyload = load float, ptr %49, align 4, !tbaa !27
  %.sroa.4.0..sroa_idx = getelementptr inbounds nuw i8, ptr %49, i64 4
  %.sroa.4.0.copyload = load float, ptr %.sroa.4.0..sroa_idx, align 4, !tbaa !27
  %50 = load float, ptr %32, align 4, !tbaa !27
  %51 = fsub nsz float %.sroa.46.0.copyload, %.sroa.4.0.copyload
  %52 = fmul nsz float %50, %51
  %53 = load float, ptr %34, align 4, !tbaa !27
  %54 = fadd nsz float %.sroa.46.0.copyload, %.sroa.4.0.copyload
  %55 = fmul nsz float %54, %53
  %56 = load float, ptr %36, align 4, !tbaa !27
  %57 = fsub nsz float %.sroa.05.0.copyload, %.sroa.0.0.copyload
  %58 = fmul nsz float %57, %56
  %59 = getelementptr inbounds nuw float, ptr %14, i64 %indvars.iv
  %60 = load float, ptr %59, align 4, !tbaa !27
  %61 = getelementptr inbounds nuw float, ptr %12, i64 %indvars.iv
  %62 = load float, ptr %61, align 4, !tbaa !27
  %63 = fmul nsz float %58, %62
  %64 = tail call nsz float @llvm.fmuladd.f32(float %55, float %60, float %63)
  %65 = fsub nsz float %64, %52
  %gep = getelementptr float, ptr %invariant.gep, i64 %indvars.iv
  store float %65, ptr %gep, align 4, !tbaa !27
  %66 = fadd nsz float %52, %64
  %67 = trunc i64 %indvars.iv to i32
  %68 = xor i32 %67, -1
  %69 = add i32 %5, %68
  %70 = sext i32 %69 to i64
  %71 = getelementptr inbounds float, ptr %1, i64 %70
  store float %66, ptr %71, align 4, !tbaa !27
  %indvars.iv.next = add nuw nsw i64 %indvars.iv, 1
  %exitcond.not = icmp eq i64 %indvars.iv.next, %wide.trip.count
  br i1 %exitcond.not, label %.lr.ph93.preheader, label %.lr.ph, !llvm.loop !146

._crit_edge:                                      ; preds = %.lr.ph93, %4
  %72 = fsub nsz float %.sroa.423.0.copyload, %.sroa.420.0.copyload
  %73 = fmul nsz float %33, %72
  %74 = fadd nsz float %.sroa.423.0.copyload, %.sroa.420.0.copyload
  %75 = fmul nsz float %74, %35
  %76 = fsub nsz float %30, %.sroa.019.0.copyload
  %77 = fmul nsz float %76, %37
  %78 = fmul nsz float %77, %41
  %79 = tail call nsz float @llvm.fmuladd.f32(float %75, float %39, float %78)
  %80 = fadd nsz float %73, %79
  %81 = getelementptr inbounds float, ptr %1, i64 %27
  store float %80, ptr %81, align 4, !tbaa !27
  ret void

.lr.ph93:                                         ; preds = %.lr.ph93.preheader, %.lr.ph93
  %indvars.iv96 = phi i64 [ 1, %.lr.ph93.preheader ], [ %indvars.iv.next97, %.lr.ph93 ]
  %82 = sub nsw i64 %44, %indvars.iv96
  %83 = getelementptr inbounds float, ptr %1, i64 %82
  %84 = load float, ptr %83, align 4, !tbaa !27
  %85 = sub nsw i64 %45, %indvars.iv96
  %86 = getelementptr inbounds float, ptr %1, i64 %85
  store float %84, ptr %86, align 4, !tbaa !27
  %indvars.iv.next97 = add nuw nsw i64 %indvars.iv96, 1
  %exitcond100.not = icmp eq i64 %indvars.iv.next97, %wide.trip.count99
  br i1 %exitcond100.not, label %._crit_edge, label %.lr.ph93, !llvm.loop !147
}